; Function Attrs: mustprogress nofree norecurse nosync nounwind willreturn memory(read, argmem: readwrite, inaccessiblemem: none) uwtable
define ptr @Cudd_addMinimum(ptr noundef readonly captures(none) %0, ptr noundef captures(none) %1, ptr noundef captures(none) %2) local_unnamed_addr #3 {
  %4 = load ptr, ptr %1, align 8, !tbaa !26
  %5 = load ptr, ptr %2, align 8, !tbaa !26
  %6 = getelementptr inbounds nuw i8, ptr %0, i64 56
  %7 = load ptr, ptr %6, align 8, !tbaa !34
  %8 = icmp eq ptr %4, %7
  br i1 %8, label %27, label %9

9:                                                ; preds = %3
  %10 = icmp eq ptr %5, %7
  %11 = icmp eq ptr %4, %5
  %or.cond = or i1 %11, %10
  br i1 %or.cond, label %27, label %12

12:                                               ; preds = %9
  %13 = load i32, ptr %4, align 8, !tbaa !27
  %14 = icmp eq i32 %13, 2147483647
  br i1 %14, label %15, label %24

15:                                               ; preds = %12
  %16 = load i32, ptr %5, align 8, !tbaa !27
  %17 = icmp eq i32 %16, 2147483647
  br i1 %17, label %18, label %24

18:                                               ; preds = %15
  %19 = getelementptr inbounds nuw i8, ptr %4, i64 16
  %20 = load double, ptr %19, align 8, !tbaa !30
  %21 = getelementptr inbounds nuw i8, ptr %5, i64 16
  %22 = load double, ptr %21, align 8, !tbaa !30
  %23 = fcmp ugt double %20, %22
  %. = select i1 %23, ptr %5, ptr %4
  br label %27

24:                                               ; preds = %15, %12
  %25 = icmp ugt ptr %4, %5
  br i1 %25, label %26, label %27

26:                                               ; preds = %24
  store ptr %5, ptr %1, align 8, !tbaa !26
  store ptr %4, ptr %2, align 8, !tbaa !26
  br label %27

27:                                               ; preds = %24, %26, %18, %9, %3
  %.0 = phi ptr [ %5, %3 ], [ %4, %9 ], [ %., %18 ], [ null, %26 ], [ null, %24 ]
  ret ptr %.0
}